; Function Attrs: nounwind uwtable
define ptr @l_Lean_RBNode_fold___at___private_Lean_Setup_0__Lean_toJsonModuleSetup____x40_Lean_Setup___hyg_1087____spec__4(ptr noundef %0, ptr noundef %1) local_unnamed_addr #0 {
  br label %3

3:                                                ; preds = %lean_dec.exit, %2
  %.021 = phi ptr [ %1, %2 ], [ %46, %lean_dec.exit ]
  %.0 = phi ptr [ %0, %2 ], [ %66, %lean_dec.exit ]
  %4 = ptrtoint ptr %.021 to i64
  %5 = and i64 %4, 1
  %.not.i25 = icmp eq i64 %5, 0
  br i1 %.not.i25, label %9, label %6

6:                                                ; preds = %3
  %7 = lshr i64 %4, 1
  %8 = trunc i64 %7 to i32
  br label %lean_obj_tag.exit

9:                                                ; preds = %3
  %10 = getelementptr i8, ptr %.021, i64 4
  %.val.i = load i32, ptr %10, align 4
  %11 = lshr i32 %.val.i, 24
  br label %lean_obj_tag.exit

lean_obj_tag.exit:                                ; preds = %6, %9
  %.0.i = phi i32 [ %8, %6 ], [ %11, %9 ]
  %12 = icmp eq i32 %.0.i, 0
  br i1 %12, label %13, label %14

13:                                               ; preds = %lean_obj_tag.exit
  ret ptr %.0

14:                                               ; preds = %lean_obj_tag.exit
  %15 = getelementptr inbounds nuw i8, ptr %.021, i64 8
  %16 = load ptr, ptr %15, align 8, !tbaa !4
  %17 = ptrtoint ptr %16 to i64
  %18 = and i64 %17, 1
  %.not = icmp eq i64 %18, 0
  br i1 %.not, label %19, label %lean_inc.exit24

19:                                               ; preds = %14
  %.val.i26 = load i32, ptr %16, align 4, !tbaa !8
  %20 = icmp sgt i32 %.val.i26, 0
  br i1 %20, label %21, label %23, !prof !11

21:                                               ; preds = %19
  %22 = add nuw i32 %.val.i26, 1
  store i32 %22, ptr %16, align 4, !tbaa !8
  br label %lean_inc.exit24

23:                                               ; preds = %19
  %.not.i27 = icmp eq i32 %.val.i26, 0
  br i1 %.not.i27, label %lean_inc.exit24, label %24

24:                                               ; preds = %23
  tail call void @lean_inc_ref_cold(ptr noundef nonnull %16) #6
  br label %lean_inc.exit24

lean_inc.exit24:                                  ; preds = %24, %23, %21, %14
  %25 = getelementptr inbounds nuw i8, ptr %.021, i64 16
  %26 = load ptr, ptr %25, align 8, !tbaa !4
  %27 = ptrtoint ptr %26 to i64
  %28 = and i64 %27, 1
  %.not37 = icmp eq i64 %28, 0
  br i1 %.not37, label %29, label %lean_inc.exit23

29:                                               ; preds = %lean_inc.exit24
  %.val.i28 = load i32, ptr %26, align 4, !tbaa !8
  %30 = icmp sgt i32 %.val.i28, 0
  br i1 %30, label %31, label %33, !prof !11

31:                                               ; preds = %29
  %32 = add nuw i32 %.val.i28, 1
  store i32 %32, ptr %26, align 4, !tbaa !8
  br label %lean_inc.exit23

33:                                               ; preds = %29
  %.not.i29 = icmp eq i32 %.val.i28, 0
  br i1 %.not.i29, label %lean_inc.exit23, label %34

34:                                               ; preds = %33
  tail call void @lean_inc_ref_cold(ptr noundef nonnull %26) #6
  br label %lean_inc.exit23

lean_inc.exit23:                                  ; preds = %34, %33, %31, %lean_inc.exit24
  %35 = getelementptr inbounds nuw i8, ptr %.021, i64 24
  %36 = load ptr, ptr %35, align 8, !tbaa !4
  %37 = ptrtoint ptr %36 to i64
  %38 = and i64 %37, 1
  %.not38 = icmp eq i64 %38, 0
  br i1 %.not38, label %39, label %lean_inc.exit22

39:                                               ; preds = %lean_inc.exit23
  %.val.i31 = load i32, ptr %36, align 4, !tbaa !8
  %40 = icmp sgt i32 %.val.i31, 0
  br i1 %40, label %41, label %43, !prof !11

41:                                               ; preds = %39
  %42 = add nuw i32 %.val.i31, 1
  store i32 %42, ptr %36, align 4, !tbaa !8
  br label %lean_inc.exit22

43:                                               ; preds = %39
  %.not.i32 = icmp eq i32 %.val.i31, 0
  br i1 %.not.i32, label %lean_inc.exit22, label %44

44:                                               ; preds = %43
  tail call void @lean_inc_ref_cold(ptr noundef nonnull %36) #6
  br label %lean_inc.exit22

lean_inc.exit22:                                  ; preds = %44, %43, %41, %lean_inc.exit23
  %45 = getelementptr inbounds nuw i8, ptr %.021, i64 32
  %46 = load ptr, ptr %45, align 8, !tbaa !4
  %47 = ptrtoint ptr %46 to i64
  %48 = and i64 %47, 1
  %.not39 = icmp eq i64 %48, 0
  br i1 %.not39, label %49, label %lean_inc.exit

49:                                               ; preds = %lean_inc.exit22
  %.val.i34 = load i32, ptr %46, align 4, !tbaa !8
  %50 = icmp sgt i32 %.val.i34, 0
  br i1 %50, label %51, label %53, !prof !11

51:                                               ; preds = %49
  %52 = add nuw i32 %.val.i34, 1
  store i32 %52, ptr %46, align 4, !tbaa !8
  br label %lean_inc.exit

53:                                               ; preds = %49
  %.not.i35 = icmp eq i32 %.val.i34, 0
  br i1 %.not.i35, label %lean_inc.exit, label %54

54:                                               ; preds = %53
  tail call void @lean_inc_ref_cold(ptr noundef nonnull %46) #6
  br label %lean_inc.exit

lean_inc.exit:                                    ; preds = %54, %53, %51, %lean_inc.exit22
  br i1 %.not.i25, label %55, label %lean_dec.exit

55:                                               ; preds = %lean_inc.exit
  %56 = load i32, ptr %.021, align 4, !tbaa !8
  %57 = icmp sgt i32 %56, 1
  br i1 %57, label %58, label %60, !prof !11

58:                                               ; preds = %55
  %59 = add nsw i32 %56, -1
  store i32 %59, ptr %.021, align 4, !tbaa !8
  br label %lean_dec.exit

60:                                               ; preds = %55
  %.not.i = icmp eq i32 %56, 0
  br i1 %.not.i, label %lean_dec.exit, label %61

61:                                               ; preds = %60
  tail call void @lean_dec_ref_cold(ptr noundef nonnull %.021) #6
  br label %lean_dec.exit

lean_dec.exit:                                    ; preds = %61, %60, %58, %lean_inc.exit
  %62 = tail call ptr @l_Lean_RBNode_fold___at___private_Lean_Setup_0__Lean_toJsonModuleSetup____x40_Lean_Setup___hyg_1087____spec__4(ptr noundef %.0, ptr noundef %16)
  %63 = load ptr, ptr @l___private_Lean_Setup_0__Lean_toJsonImport____x40_Lean_Setup___hyg_124____closed__1, align 8, !tbaa !4
  %64 = tail call ptr @l_Lean_Name_toString(ptr noundef %26, i8 noundef zeroext 1, ptr noundef %63) #6
  %65 = tail call ptr @l___private_Lean_Setup_0__Lean_toJsonModuleArtifacts____x40_Lean_Setup___hyg_549_(ptr noundef %36)
  %66 = tail call ptr @l_Lean_RBNode_insert___at_Lean_Json_mkObj___spec__1(ptr noundef %62, ptr noundef %64, ptr noundef %65) #6
  br label %3
}